(lp0
(dp1
S'title_raw'
p2
VAnand
p3
sS'imdb_genres'
p4
(lp5
V Drama
p6
asS'wiki_synopsis_title_year'
p7
S" Plot  [edit]  [  [  edit  edit  ]  ]  \n  The film begins with a felicitation ceremony arranged for Dr. Bhaskar (Amitabh Bachchan) who has just written a book titled Anand. Bhaskar is a cancer specialist and after the congratulatory speeches, he reveals that the book is not a work of fiction but taken from his own diary and pertains to his experiences with a real person named Anand.  The film begins with a felicitation ceremony arranged for Dr. Bhaskar (  Amitabh Bachchan  Amitabh Bachchan  ) who has just written a book titled   Anand  Anand  . Bhaskar is a cancer specialist and after the congratulatory speeches, he reveals that the book is not a work of fiction but taken from his own diary and pertains to his experiences with a real person named Anand.  \n  In flashback, Bhaskar is shown as an honest and committed physician who is happier dealing with genuine suffering than with the rich and their imagined ailments. He is blunt to a fault and does not conceal a patient's true predicament from him or her, regardless of the seriousness of the condition. Dr. Kulkarni, his friend, introduces him to Anand (Rajesh Khanna) who is dying from intestinal cancer. Bhaskar is struck by Anand's good cheer and is shocked to learn that Anand is aware of his true condition.  In flashback, Bhaskar is shown as an honest and committed physician who is happier dealing with genuine suffering than with the rich and their imagined ailments. He is blunt to a fault and does not conceal a patient's true predicament from him or her, regardless of the seriousness of the condition. Dr. Kulkarni, his friend, introduces him to Anand (  Rajesh Khanna  Rajesh Khanna  ) who is dying from   intestinal cancer  intestinal cancer  . Bhaskar is struck by Anand's good cheer and is shocked to learn that Anand is aware of his true condition.  \n  Anand and Bhaskar become fast friends and Anand decides to bring happiness into Bhaskar's life. Bhaskar had once cured Renu (Sumita Sanyal) of pneumonia. He fell in love with her but was unable to propose to her. Anand decides to bring Renu and Bhaskar together, and the two are together when Anand finally dies.  Anand and Bhaskar become fast friends and Anand decides to bring happiness into Bhaskar's life. Bhaskar had once cured Renu (  Sumita Sanyal  Sumita Sanyal  ) of   pneumonia  pneumonia  . He fell in love with her but was unable to propose to her. Anand decides to bring Renu and Bhaskar together, and the two are together when Anand finally dies.  \n "
p8
sS'title'
p9
VAnand
p10
sS'url'
p11
Vhttps://en.wikipedia.org/wiki/Anand_(1971_film)
p12
sS'title_year'
p13
VAnand_(1971_film)
p14
sS'imdb_synopsis'
p15
V\u000aNEW_LINE
p16
sS'link'
p17
Vhttp://www.imdb.com//title/tt0066763/
p18
sS'wiki_synopsis'
p19
S" Plot  [edit]  [  [  edit  edit  ]  ]  \n  The film begins with a felicitation ceremony arranged for Dr. Bhaskar (Amitabh Bachchan) who has just written a book titled Anand. Bhaskar is a cancer specialist and after the congratulatory speeches, he reveals that the book is not a work of fiction but taken from his own diary and pertains to his experiences with a real person named Anand.  The film begins with a felicitation ceremony arranged for Dr. Bhaskar (  Amitabh Bachchan  Amitabh Bachchan  ) who has just written a book titled   Anand  Anand  . Bhaskar is a cancer specialist and after the congratulatory speeches, he reveals that the book is not a work of fiction but taken from his own diary and pertains to his experiences with a real person named Anand.  \n  In flashback, Bhaskar is shown as an honest and committed physician who is happier dealing with genuine suffering than with the rich and their imagined ailments. He is blunt to a fault and does not conceal a patient's true predicament from him or her, regardless of the seriousness of the condition. Dr. Kulkarni, his friend, introduces him to Anand (Rajesh Khanna) who is dying from intestinal cancer. Bhaskar is struck by Anand's good cheer and is shocked to learn that Anand is aware of his true condition.  In flashback, Bhaskar is shown as an honest and committed physician who is happier dealing with genuine suffering than with the rich and their imagined ailments. He is blunt to a fault and does not conceal a patient's true predicament from him or her, regardless of the seriousness of the condition. Dr. Kulkarni, his friend, introduces him to Anand (  Rajesh Khanna  Rajesh Khanna  ) who is dying from   intestinal cancer  intestinal cancer  . Bhaskar is struck by Anand's good cheer and is shocked to learn that Anand is aware of his true condition.  \n  Anand and Bhaskar become fast friends and Anand decides to bring happiness into Bhaskar's life. Bhaskar had once cured Renu (Sumita Sanyal) of pneumonia. He fell in love with her but was unable to propose to her. Anand decides to bring Renu and Bhaskar together, and the two are together when Anand finally dies.  Anand and Bhaskar become fast friends and Anand decides to bring happiness into Bhaskar's life. Bhaskar had once cured Renu (  Sumita Sanyal  Sumita Sanyal  ) of   pneumonia  pneumonia  . He fell in love with her but was unable to propose to her. Anand decides to bring Renu and Bhaskar together, and the two are together when Anand finally dies.  \n "
p20
sS'wiki_synopsis_title'
p21
S''
p22
sa(dp23
g2
VAndaz Apna Apna
p24
sg4
(lp25
V Comedy
p26
aV Family
p27
aV Romance
p28
asg7
g22
sg9
VAndaz Apna Apna
p29
sg11
Vhttps://en.wikipedia.org/wiki/Ullathai_Allitha
p30
sg13
VAndaz Apna Apna_(1994_film)
p31
sg15
V\u000aNEW_LINE
p32
sg17
Vhttp://www.imdb.com//title/tt0109117/
p33
sg19
S" Plot  [edit]  [  [  edit  edit  ]  ]  \n  Raja (Karthik) feels stifled under his strict father Col. Chandrasekhar (Jaiganesh) and when his father picks a girl he doesn't like for him to marry, it is the last straw and he runs away to Ooty. There he teams up with Vasu (Goundamani) and they come up with an ill-advised plan to kidnap Indu (Rambha), the daughter of Vishwanathan (Manivannan). Vishwanathan is in fact Col. Chandrasekhar's friend and it is Indu that Raja was supposed to marry. But Vishwanathan now mistakes Vasu to be his friend's son and takes him under his wing while Raja is hired to be his driver.  Raja (  Karthik  Karthik  ) feels stifled under his strict father Col. Chandrasekhar (  Jaiganesh  Jaiganesh  ) and when his father picks a girl he doesn't like for him to marry, it is the last straw and he runs away to Ooty. There he teams up with Vasu (  Goundamani  Goundamani  ) and they come up with an ill-advised plan to kidnap Indu (  Rambha  Rambha  ), the daughter of Vishwanathan (  Manivannan  Manivannan  ). Vishwanathan is in fact Col. Chandrasekhar's friend and it is Indu that Raja was supposed to marry. But Vishwanathan now mistakes Vasu to be his friend's son and takes him under his wing while Raja is hired to be his driver.  \n "
p34
sg21
S' Plot  [edit]  [  [  edit  edit  ]  ]  \n  It\'s a story of two men competing for the hand of an heiress get drawn into love \xe2\x80\x93 and into trying to save her from an evil criminal. Amar (Aamir Khan) and Prem (Salman Khan) are two daydreamers with a common aim: getting rich by marrying a rich heiress, Raveena Bajaj (Raveena Tandon), daughter of Ram Gopal Bajaj (Paresh Rawal). The guys run into each other on a bus and soon realise that they have a common goal. The duo fail at various attempts to woo the lady.  It\'s a story of two men competing for the hand of an heiress get drawn into love \xe2\x80\x93 and into trying to save her from an evil criminal. Amar (  Aamir Khan  Aamir Khan  ) and Prem (  Salman Khan  Salman Khan  ) are two daydreamers with a common aim: getting rich by marrying a rich heiress, Raveena Bajaj (  Raveena Tandon  Raveena Tandon  ), daughter of Ram Gopal Bajaj (  Paresh Rawal  Paresh Rawal  ). The guys run into each other on a bus and soon realise that they have a common goal. The duo fail at various attempts to woo the lady.  \n  Finally, they decide to insinuate themselves in her house. Amar pretends to be a guy who has lost his memory after getting hit by Raveena, while Prem pretends to be a doctor. The boys don\'t know that Raveena\'s secretary Karishma (Karisma Kapoor) is the real Raveena and Raveena\'s actual name is Karishma. Raveena switched her identity because she wanted to find a boy who will love her, not her money.  Finally, they decide to insinuate themselves in her house. Amar pretends to be a guy who has lost his memory after getting hit by Raveena, while Prem pretends to be a doctor. The boys don\'t know that Raveena\'s secretary Karishma (  Karisma Kapoor  Karisma Kapoor  ) is the real Raveena and Raveena\'s actual name is Karishma. Raveena switched her identity because she wanted to find a boy who will love her, not her money.  \n  Nobody is aware that Ram Gopal has a twin brother called Shyam Gopal Bajaj aka Teja. Teja is a criminal who has taken lots of money from Crime Master Gogo (Shakti Kapoor). Teja hopes to land the riches himself by kidnapping his brother and posing as Ram. He has also planted his cronies Robert (Viju Khote) and Bhalla (Shehzad Khan) in the household.  Nobody is aware that Ram Gopal has a twin brother called Shyam Gopal Bajaj aka Teja. Teja is a criminal who has taken lots of money from   Crime Master Gogo  Crime Master Gogo   (  Shakti Kapoor  Shakti Kapoor  ). Teja hopes to land the riches himself by kidnapping his brother and posing as Ram. He has also planted his cronies Robert (  Viju Khote  Viju Khote  ) and Bhalla (  Shehzad Khan  Shehzad Khan  ) in the household.  \n  Ram arrives in India  Teja plans to steal Ram\'s money converted in diamonds. Here, Ram sees through the real nature of Amar  Prem, thus declining Raveena\'s marriage to either of them. The duo plan to fake a kidnapping where they will heroically "rescue" Ram. Unknown to them, Teja has planned to kidnap Ram as well.  Ram arrives in India & Teja plans to steal Ram\'s money converted in diamonds. Here, Ram sees through the real nature of Amar & Prem, thus declining Raveena\'s marriage to either of them. The duo plan to fake a kidnapping where they will heroically "rescue" Ram. Unknown to them, Teja has planned to kidnap Ram as well.  \n  Teja succeeds in having Ram kidnapped. The boys go to rescue Ram, but Teja makes them believe that he is Ram and finally enters Ram\'s household. Initially, nobody suspects a thing, but the girls soon smell a rat. The boys have discovered real identities of the girls. Prem has fallen for real Raveena while Amar has fallen for real Karishma.  Teja succeeds in having Ram kidnapped. The boys go to rescue Ram, but Teja makes them believe that he is Ram and finally enters Ram\'s household. Initially, nobody suspects a thing, but the girls soon smell a rat. The boys have discovered real identities of the girls. Prem has fallen for real Raveena while Amar has fallen for real Karishma.  \n  The girls tell their suspicions to the boys. The boys tail Teja and soon find out the truth. Here, Ram tricks Teja and escapes the prison. However, the boys mistake him for Teja, resulting in Ram being imprisoned again \xe2\x80\x93 with Amar  Prem. However, Amar  Prem succeed in convincing Robert  Bhalla that Ram is actually Teja.  The girls tell their suspicions to the boys. The boys tail Teja and soon find out the truth. Here, Ram tricks Teja and escapes the prison. However, the boys mistake him for Teja, resulting in Ram being imprisoned again \xe2\x80\x93 with Amar & Prem. However, Amar & Prem succeed in convincing Robert & Bhalla that Ram is actually Teja.  \n  The boys, along with Robert  Bhalla, stop Teja. However, Ram is kidnapped along with Raveena  Karishma. The climax takes place in Gogo\'s lair, where the boys try to control the situation along with Ram. In a comic standoff, the real motive of each villain is revealed. However, due to the smartness of the boys, police raid Gogo\'s lair, thus rounding up all the criminals. Ram finally decides to have the girls married to Amar  Prem.  The boys, along with Robert & Bhalla, stop Teja. However, Ram is kidnapped along with Raveena & Karishma. The climax takes place in Gogo\'s lair, where the boys try to control the situation along with Ram. In a comic standoff, the real motive of each villain is revealed. However, due to the smartness of the boys, police raid Gogo\'s lair, thus rounding up all the criminals. Ram finally decides to have the girls married to Amar & Prem.  \n '
p35
sa(dp36
g2
VGol Maal
p37
sg4
(lp38
V Comedy
p39
aV Romance
p40
asg7
S' Plot  [edit]  [  [  edit  edit  ]  ]  \n  Ramprasad Dashrathprasad Sharma (Amol Palekar) is looking for a better paying job. He and his sister Ratna (Manju Singh) have no relatives or acquaintances except Dr. Kedar (David). Dr.Kedar tells him about Bhavani Shankar\'s (Utpal Dutt) firm known as Urmila Traders. Shankar is a man of traditional values, hence he naturally hates youth wearing modern clothes. He is a sports fan, but thinks lowly of youth knowing anything about sports. But his most weird trait is hatred towards men without moustaches. He thinks that men without moustaches are characterless.  Ramprasad Dashrathprasad Sharma (  Amol Palekar  Amol Palekar  ) is looking for a better paying job. He and his sister Ratna (  Manju Singh  Manju Singh  ) have no relatives or acquaintances except Dr. Kedar (  David  David  ). Dr.Kedar tells him about Bhavani Shankar\'s (  Utpal Dutt  Utpal Dutt  ) firm known as Urmila Traders. Shankar is a man of traditional values, hence he naturally hates youth wearing modern clothes. He is a sports fan, but thinks lowly of youth knowing anything about sports. But his most weird trait is hatred towards men without moustaches. He thinks that men without moustaches are characterless.  \n  Ramprasad has a moustache. He takes care of other problems by wearing kurta  feigning ignorance about sports. Bhavani hires him immediately. Ram is a hardworking guy, so Bhavani ( Ram) have no problems. However, Ram once takes leave by pretending that his mother (who died many years ago) has taken ill, and goes to watch a hockey match. Bhavani Shankar, who also attended the match, sees him there.  Ramprasad has a moustache. He takes care of other problems by wearing kurta & feigning ignorance about sports. Bhavani hires him immediately. Ram is a hardworking guy, so Bhavani (& Ram) have no problems. However, Ram once takes leave by pretending that his mother (who died many years ago) has taken ill, and goes to watch a hockey match. Bhavani Shankar, who also attended the match, sees him there.  \n  The next day Bhavani summons Ramprasad to his office and asks him about the Hockey match. Remembering the plot of a movie a friend of his is shooting, Ram convinces Bhavani Shankar that he had seen his "moustache-less" identical twin Lucky (alias Lakshmanprasad Dashrathprasad Sharma) at the stadium.  The next day Bhavani summons Ramprasad to his office and asks him about the Hockey match. Remembering the plot of a movie a friend of his is shooting, Ram convinces Bhavani Shankar that he had seen his "moustache-less" identical twin Lucky (alias Lakshmanprasad Dashrathprasad Sharma) at the stadium.  \n  Bhavani Shankar buys his argument  feels bad about accusing him and decides to make amends by hiring Lucky to teach his daughter Urmila (Bindiya Goswami) music. Ramprasad reluctantly shaves his moustache to become Lucky and starts to teach music to Urmila. He is helped by his actor friend Deven Verma (playing himself).  Bhavani Shankar buys his argument & feels bad about accusing him and decides to make amends by hiring Lucky to teach his daughter Urmila (  Bindiya Goswami  Bindiya Goswami  ) music. Ramprasad reluctantly shaves his moustache to become Lucky and starts to teach music to Urmila. He is helped by his actor friend   Deven Verma  Deven Verma   (playing himself).  \n  Now Urmila aka Urmi is the exact opposite of her father. She takes immediate liking to Lucky, while Ram is barely noticed by her. Bhavani notices this  gives Ram another job to tutor on the pretext of her exams. Meanwhile, Mrs. Srivastav (Dina Pathak), a socialite, is roped to play the part of Ram, "Lakshman"  Ratna\'s mother. Like Ram, she also ends up playing her own twin in front of Bhavani.  Now Urmila aka Urmi is the exact opposite of her father. She takes immediate liking to Lucky, while Ram is barely noticed by her. Bhavani notices this & gives Ram another job to tutor on the pretext of her exams. Meanwhile, Mrs. Srivastav (  Dina Pathak  Dina Pathak  ), a socialite, is roped to play the part of Ram, "Lakshman" & Ratna\'s mother. Like Ram, she also ends up playing her own twin in front of Bhavani.  \n  Ram decides to tell Urmila the truth. Urmila tells him to tell the truth to Bhavani as well. Ram goes to Bhavani to tell the truth, but Bhavani sees Ram\'s moustache giving away. Bhavani exposes Ram, but ends up thinking that Lucky murdered Ram  impersonated him to marry Urmila.  Ram decides to tell Urmila the truth. Urmila tells him to tell the truth to Bhavani as well. Ram goes to Bhavani to tell the truth, but Bhavani sees Ram\'s moustache giving away. Bhavani exposes Ram, but ends up thinking that Lucky murdered Ram & impersonated him to marry Urmila.  \n  In a hilarious chase that follows, Bhavani ends up totalling a police jeep. The Senior Inspector (Om Prakash) mistakes him for a thug named Pascal D\'Costa  is about to lock him up in the jail. Only when his Inspector identifies Bhavani Shankar by his real identity is he freed. By now, a harried Bhavani has developed hatred for twin as well.  In a hilarious chase that follows, Bhavani ends up totalling a police jeep. The Senior Inspector (  Om Prakash  Om Prakash  ) mistakes him for a thug named Pascal D\'Costa & is about to lock him up in the jail. Only when his Inspector identifies Bhavani Shankar by his real identity is he freed. By now, a harried Bhavani has developed hatred for twin as well.  \n  On coming home, he finds that Urmila  Lucky are married. He refuses to give them blessings, until Dr.Kedar comes to the scene  explains the whole situation. Now, Bhavani becomes even more furious, but on everybody\'s insistence, relents. The film ends with a family photo of Mrs.Srivastav, Ratna, Urmila, Ram, Dr.Kedar, Bhavani\'s sister Kalindi (Shubha Khote)  Bhavani (who is shown without moustache).  On coming home, he finds that Urmila & Lucky are married. He refuses to give them blessings, until Dr.Kedar comes to the scene & explains the whole situation. Now, Bhavani becomes even more furious, but on everybody\'s insistence, relents. The film ends with a family photo of Mrs.Srivastav, Ratna, Urmila, Ram, Dr.Kedar, Bhavani\'s sister Kalindi (  Shubha Khote  Shubha Khote  ) & Bhavani (who is shown without moustache).  \n '
p41
sg9
VGol Maal
p42
sg11
Vhttps://en.wikipedia.org/wiki/Gol_Maal
p43
sg13
VGol Maal_(1979_film)
p44
sg15
V\u000aNEW_LINE
p45
sg17
Vhttp://www.imdb.com//title/tt0079221/
p46
sg19
S' Plot  [edit]  [  [  edit  edit  ]  ]  \n  Ramprasad Dashrathprasad Sharma (Amol Palekar) is looking for a better paying job. He and his sister Ratna (Manju Singh) have no relatives or acquaintances except Dr. Kedar (David). Dr.Kedar tells him about Bhavani Shankar\'s (Utpal Dutt) firm known as Urmila Traders. Shankar is a man of traditional values, hence he naturally hates youth wearing modern clothes. He is a sports fan, but thinks lowly of youth knowing anything about sports. But his most weird trait is hatred towards men without moustaches. He thinks that men without moustaches are characterless.  Ramprasad Dashrathprasad Sharma (  Amol Palekar  Amol Palekar  ) is looking for a better paying job. He and his sister Ratna (  Manju Singh  Manju Singh  ) have no relatives or acquaintances except Dr. Kedar (  David  David  ). Dr.Kedar tells him about Bhavani Shankar\'s (  Utpal Dutt  Utpal Dutt  ) firm known as Urmila Traders. Shankar is a man of traditional values, hence he naturally hates youth wearing modern clothes. He is a sports fan, but thinks lowly of youth knowing anything about sports. But his most weird trait is hatred towards men without moustaches. He thinks that men without moustaches are characterless.  \n  Ramprasad has a moustache. He takes care of other problems by wearing kurta  feigning ignorance about sports. Bhavani hires him immediately. Ram is a hardworking guy, so Bhavani ( Ram) have no problems. However, Ram once takes leave by pretending that his mother (who died many years ago) has taken ill, and goes to watch a hockey match. Bhavani Shankar, who also attended the match, sees him there.  Ramprasad has a moustache. He takes care of other problems by wearing kurta & feigning ignorance about sports. Bhavani hires him immediately. Ram is a hardworking guy, so Bhavani (& Ram) have no problems. However, Ram once takes leave by pretending that his mother (who died many years ago) has taken ill, and goes to watch a hockey match. Bhavani Shankar, who also attended the match, sees him there.  \n  The next day Bhavani summons Ramprasad to his office and asks him about the Hockey match. Remembering the plot of a movie a friend of his is shooting, Ram convinces Bhavani Shankar that he had seen his "moustache-less" identical twin Lucky (alias Lakshmanprasad Dashrathprasad Sharma) at the stadium.  The next day Bhavani summons Ramprasad to his office and asks him about the Hockey match. Remembering the plot of a movie a friend of his is shooting, Ram convinces Bhavani Shankar that he had seen his "moustache-less" identical twin Lucky (alias Lakshmanprasad Dashrathprasad Sharma) at the stadium.  \n  Bhavani Shankar buys his argument  feels bad about accusing him and decides to make amends by hiring Lucky to teach his daughter Urmila (Bindiya Goswami) music. Ramprasad reluctantly shaves his moustache to become Lucky and starts to teach music to Urmila. He is helped by his actor friend Deven Verma (playing himself).  Bhavani Shankar buys his argument & feels bad about accusing him and decides to make amends by hiring Lucky to teach his daughter Urmila (  Bindiya Goswami  Bindiya Goswami  ) music. Ramprasad reluctantly shaves his moustache to become Lucky and starts to teach music to Urmila. He is helped by his actor friend   Deven Verma  Deven Verma   (playing himself).  \n  Now Urmila aka Urmi is the exact opposite of her father. She takes immediate liking to Lucky, while Ram is barely noticed by her. Bhavani notices this  gives Ram another job to tutor on the pretext of her exams. Meanwhile, Mrs. Srivastav (Dina Pathak), a socialite, is roped to play the part of Ram, "Lakshman"  Ratna\'s mother. Like Ram, she also ends up playing her own twin in front of Bhavani.  Now Urmila aka Urmi is the exact opposite of her father. She takes immediate liking to Lucky, while Ram is barely noticed by her. Bhavani notices this & gives Ram another job to tutor on the pretext of her exams. Meanwhile, Mrs. Srivastav (  Dina Pathak  Dina Pathak  ), a socialite, is roped to play the part of Ram, "Lakshman" & Ratna\'s mother. Like Ram, she also ends up playing her own twin in front of Bhavani.  \n  Ram decides to tell Urmila the truth. Urmila tells him to tell the truth to Bhavani as well. Ram goes to Bhavani to tell the truth, but Bhavani sees Ram\'s moustache giving away. Bhavani exposes Ram, but ends up thinking that Lucky murdered Ram  impersonated him to marry Urmila.  Ram decides to tell Urmila the truth. Urmila tells him to tell the truth to Bhavani as well. Ram goes to Bhavani to tell the truth, but Bhavani sees Ram\'s moustache giving away. Bhavani exposes Ram, but ends up thinking that Lucky murdered Ram & impersonated him to marry Urmila.  \n  In a hilarious chase that follows, Bhavani ends up totalling a police jeep. The Senior Inspector (Om Prakash) mistakes him for a thug named Pascal D\'Costa  is about to lock him up in the jail. Only when his Inspector identifies Bhavani Shankar by his real identity is he freed. By now, a harried Bhavani has developed hatred for twin as well.  In a hilarious chase that follows, Bhavani ends up totalling a police jeep. The Senior Inspector (  Om Prakash  Om Prakash  ) mistakes him for a thug named Pascal D\'Costa & is about to lock him up in the jail. Only when his Inspector identifies Bhavani Shankar by his real identity is he freed. By now, a harried Bhavani has developed hatred for twin as well.  \n  On coming home, he finds that Urmila  Lucky are married. He refuses to give them blessings, until Dr.Kedar comes to the scene  explains the whole situation. Now, Bhavani becomes even more furious, but on everybody\'s insistence, relents. The film ends with a family photo of Mrs.Srivastav, Ratna, Urmila, Ram, Dr.Kedar, Bhavani\'s sister Kalindi (Shubha Khote)  Bhavani (who is shown without moustache).  On coming home, he finds that Urmila & Lucky are married. He refuses to give them blessings, until Dr.Kedar comes to the scene & explains the whole situation. Now, Bhavani becomes even more furious, but on everybody\'s insistence, relents. The film ends with a family photo of Mrs.Srivastav, Ratna, Urmila, Ram, Dr.Kedar, Bhavani\'s sister Kalindi (  Shubha Khote  Shubha Khote  ) & Bhavani (who is shown without moustache).  \n '
p47
sg21
S' Plot  [edit]  [  [  edit  edit  ]  ]  \n  Ramprasad Dashrathprasad Sharma (Amol Palekar) is looking for a better paying job. He and his sister Ratna (Manju Singh) have no relatives or acquaintances except Dr. Kedar (David). Dr.Kedar tells him about Bhavani Shankar\'s (Utpal Dutt) firm known as Urmila Traders. Shankar is a man of traditional values, hence he naturally hates youth wearing modern clothes. He is a sports fan, but thinks lowly of youth knowing anything about sports. But his most weird trait is hatred towards men without moustaches. He thinks that men without moustaches are characterless.  Ramprasad Dashrathprasad Sharma (  Amol Palekar  Amol Palekar  ) is looking for a better paying job. He and his sister Ratna (  Manju Singh  Manju Singh  ) have no relatives or acquaintances except Dr. Kedar (  David  David  ). Dr.Kedar tells him about Bhavani Shankar\'s (  Utpal Dutt  Utpal Dutt  ) firm known as Urmila Traders. Shankar is a man of traditional values, hence he naturally hates youth wearing modern clothes. He is a sports fan, but thinks lowly of youth knowing anything about sports. But his most weird trait is hatred towards men without moustaches. He thinks that men without moustaches are characterless.  \n  Ramprasad has a moustache. He takes care of other problems by wearing kurta  feigning ignorance about sports. Bhavani hires him immediately. Ram is a hardworking guy, so Bhavani ( Ram) have no problems. However, Ram once takes leave by pretending that his mother (who died many years ago) has taken ill, and goes to watch a hockey match. Bhavani Shankar, who also attended the match, sees him there.  Ramprasad has a moustache. He takes care of other problems by wearing kurta & feigning ignorance about sports. Bhavani hires him immediately. Ram is a hardworking guy, so Bhavani (& Ram) have no problems. However, Ram once takes leave by pretending that his mother (who died many years ago) has taken ill, and goes to watch a hockey match. Bhavani Shankar, who also attended the match, sees him there.  \n  The next day Bhavani summons Ramprasad to his office and asks him about the Hockey match. Remembering the plot of a movie a friend of his is shooting, Ram convinces Bhavani Shankar that he had seen his "moustache-less" identical twin Lucky (alias Lakshmanprasad Dashrathprasad Sharma) at the stadium.  The next day Bhavani summons Ramprasad to his office and asks him about the Hockey match. Remembering the plot of a movie a friend of his is shooting, Ram convinces Bhavani Shankar that he had seen his "moustache-less" identical twin Lucky (alias Lakshmanprasad Dashrathprasad Sharma) at the stadium.  \n  Bhavani Shankar buys his argument  feels bad about accusing him and decides to make amends by hiring Lucky to teach his daughter Urmila (Bindiya Goswami) music. Ramprasad reluctantly shaves his moustache to become Lucky and starts to teach music to Urmila. He is helped by his actor friend Deven Verma (playing himself).  Bhavani Shankar buys his argument & feels bad about accusing him and decides to make amends by hiring Lucky to teach his daughter Urmila (  Bindiya Goswami  Bindiya Goswami  ) music. Ramprasad reluctantly shaves his moustache to become Lucky and starts to teach music to Urmila. He is helped by his actor friend   Deven Verma  Deven Verma   (playing himself).  \n  Now Urmila aka Urmi is the exact opposite of her father. She takes immediate liking to Lucky, while Ram is barely noticed by her. Bhavani notices this  gives Ram another job to tutor on the pretext of her exams. Meanwhile, Mrs. Srivastav (Dina Pathak), a socialite, is roped to play the part of Ram, "Lakshman"  Ratna\'s mother. Like Ram, she also ends up playing her own twin in front of Bhavani.  Now Urmila aka Urmi is the exact opposite of her father. She takes immediate liking to Lucky, while Ram is barely noticed by her. Bhavani notices this & gives Ram another job to tutor on the pretext of her exams. Meanwhile, Mrs. Srivastav (  Dina Pathak  Dina Pathak  ), a socialite, is roped to play the part of Ram, "Lakshman" & Ratna\'s mother. Like Ram, she also ends up playing her own twin in front of Bhavani.  \n  Ram decides to tell Urmila the truth. Urmila tells him to tell the truth to Bhavani as well. Ram goes to Bhavani to tell the truth, but Bhavani sees Ram\'s moustache giving away. Bhavani exposes Ram, but ends up thinking that Lucky murdered Ram  impersonated him to marry Urmila.  Ram decides to tell Urmila the truth. Urmila tells him to tell the truth to Bhavani as well. Ram goes to Bhavani to tell the truth, but Bhavani sees Ram\'s moustache giving away. Bhavani exposes Ram, but ends up thinking that Lucky murdered Ram & impersonated him to marry Urmila.  \n  In a hilarious chase that follows, Bhavani ends up totalling a police jeep. The Senior Inspector (Om Prakash) mistakes him for a thug named Pascal D\'Costa  is about to lock him up in the jail. Only when his Inspector identifies Bhavani Shankar by his real identity is he freed. By now, a harried Bhavani has developed hatred for twin as well.  In a hilarious chase that follows, Bhavani ends up totalling a police jeep. The Senior Inspector (  Om Prakash  Om Prakash  ) mistakes him for a thug named Pascal D\'Costa & is about to lock him up in the jail. Only when his Inspector identifies Bhavani Shankar by his real identity is he freed. By now, a harried Bhavani has developed hatred for twin as well.  \n  On coming home, he finds that Urmila  Lucky are married. He refuses to give them blessings, until Dr.Kedar comes to the scene  explains the whole situation. Now, Bhavani becomes even more furious, but on everybody\'s insistence, relents. The film ends with a family photo of Mrs.Srivastav, Ratna, Urmila, Ram, Dr.Kedar, Bhavani\'s sister Kalindi (Shubha Khote)  Bhavani (who is shown without moustache).  On coming home, he finds that Urmila & Lucky are married. He refuses to give them blessings, until Dr.Kedar comes to the scene & explains the whole situation. Now, Bhavani becomes even more furious, but on everybody\'s insistence, relents. The film ends with a family photo of Mrs.Srivastav, Ratna, Urmila, Ram, Dr.Kedar, Bhavani\'s sister Kalindi (  Shubha Khote  Shubha Khote  ) & Bhavani (who is shown without moustache).  \n '
p48
sa.