(lp0
(dp1
S'url'
p2
Vhttps://en.wikipedia.org/wiki/Anand_(1971_film)
p3
sS'link'
p4
V/title/tt0066763/
p5
sS'title'
p6
VAnand
p7
sa(dp8
g2
Vhttps://en.wikipedia.org/wiki/Ullathai_Allitha
p9
sg4
V/title/tt0109117/
p10
sg6
VAndaz Apna Apna
p11
sa(dp12
g2
Vhttps://en.wikipedia.org/wiki/Gol_Maal
p13
sg4
V/title/tt0079221/
p14
sg6
VGol Maal
p15
sa(dp16
g2
Vhttps://en.wikipedia.org/wiki/Sholay
p17
sg4
V/title/tt0073707/
p18
sg6
VSholay
p19
sa(dp20
g2
Vhttps://en.wikipedia.org/wiki/Black_Friday_(1940_film)
p21
sg4
V/title/tt0400234/
p22
sg6
VBlack Friday
p23
sa(dp24
g2
Vhttps://en.wikipedia.org/wiki/John_Elliot_(author)
p25
sg4
V/title/tt0085743/
p26
sg6
VWho Pays the Piper
p27
sa(dp28
g2
Vhttps://en.wikipedia.org/wiki/Hera_Pheri_(1976_film)
p29
sg4
V/title/tt0242519/
p30
sg6
VHera Pheri
p31
sa(dp32
g2
Vhttps://en.wikipedia.org/wiki/Guide_(film)
p33
sg4
V/title/tt0059246/
p34
sg6
VGuide
p35
sa(dp36
g2
Vhttps://en.wikipedia.org/wiki/Koshish
p37
sg4
V/title/tt0215911/
p38
sg6
VKoshish
p39
sa(dp40
g2
Vhttps://en.wikipedia.org/wiki/The_Virgin_Queen_(1923_film)
p41
sg4
V/title/tt3322420/
p42
sg6
VQueen
p43
sa(dp44
g2
Vhttps://en.wikipedia.org/wiki/Masoom_(1960_film)
p45
sg4
V/title/tt0085913/
p46
sg6
VMasoom
p47
sa(dp48
g2
Vhttps://en.wikipedia.org/wiki/3_Idiots
p49
sg4
V/title/tt1187043/
p50
sg6
V3 Idiots
p51
sa(dp52
g2
Vhttps://en.wikipedia.org/wiki/Chupke_Chupke
p53
sg4
V/title/tt0072783/
p54
sg6
VChupke Chupke
p55
sa(dp56
g2
Vhttps://en.wikipedia.org/wiki/Pyaasa_(2002_film)
p57
sg4
V/title/tt0050870/
p58
sg6
VPyaasa
p59
sa(dp60
g2
S'_INVALID_PAGE_URL'
p61
sg4
V/title/tt0871510/
p62
sg6
VChakde India
p63
sa(dp64
g2
Vhttps://en.wikipedia.org/wiki/List_of_Indian_film_series
p65
sg4
V/title/tt1954470/
p66
sg6
VGangs of Wasseypur
p67
sa(dp68
g2
Vhttps://en.wikipedia.org/wiki/Khosla_Ka_Ghosla
p69
sg4
V/title/tt0466460/
p70
sg6
VKhosla s Nest
p71
sa(dp72
g2
Vhttps://en.wikipedia.org/wiki/Angoor_(1982_film)
p73
sg4
V/title/tt0215517/
p74
sg6
VAngoor
p75
sa(dp76
g2
Vhttps://en.wikipedia.org/wiki/Udaan_(1997_film)
p77
sg4
V/title/tt1639426/
p78
sg6
VUdaan
p79
sa(dp80
g2
Vhttps://en.wikipedia.org/wiki/Bhaag_Milkha_Bhaag
p81
sg4
V/title/tt2356180/
p82
sg6
VBhaag Milkha Bhaag
p83
sa(dp84
g2
Vhttps://en.wikipedia.org/wiki/Mughal-e-Azam
p85
sg4
V/title/tt0054098/
p86
sg6
VMughal E Azam
p87
sa(dp88
g2
Vhttps://en.wikipedia.org/wiki/Kabhi_Haan_Kabhi_Naa
p89
sg4
V/title/tt0110222/
p90
sg6
VKabhi Haan Kabhi Naa
p91
sa(dp92
g2
Vhttps://en.wikipedia.org/wiki/Dilwale_Dulhania_Le_Jayenge
p93
sg4
V/title/tt0112870/
p94
sg6
VDilwale Dulhania Le Jayenge
p95
sa(dp96
g2
Vhttps://en.wikipedia.org/wiki/Madhosh_(1994_film)
p97
sg4
V/title/tt0104561/
p98
sg6
VJo Jeeta Wohi Sikandar
p99
sa(dp100
g2
Vhttps://en.wikipedia.org/wiki/Swades
p101
sg4
V/title/tt0367110/
p102
sg6
VSwades
p103
sa(dp104
g2
Vhttps://en.wikipedia.org/wiki/Paan_Singh_Tomar_(film)
p105
sg4
V/title/tt1620933/
p106
sg6
VPaan Singh Tomar
p107
sa(dp108
g2
Vhttps://en.wikipedia.org/wiki/Chhoti_Si_Baat
p109
sg4
V/title/tt0072777/
p110
sg6
VChhoti Si Baat
p111
sa(dp112
g2
Vhttps://en.wikipedia.org/wiki/Do_Bigha_Zamin
p113
sg4
V/title/tt0045693/
p114
sg6
VDo Bigha Zamin
p115
sa(dp116
g2
Vhttps://en.wikipedia.org/wiki/Maqbool
p117
sg4
V/title/tt0379370/
p118
sg6
VMaqbool
p119
sa(dp120
g2
g61
sg4
V/title/tt1821480/
p121
sg6
VKahaani
p122
sa(dp123
g2
Vhttps://en.wikipedia.org/wiki/Barfi_(film)
p124
sg4
V/title/tt2082197/
p125
sg6
VBarfi 
p126
sa(dp127
g2
Vhttps://en.wikipedia.org/wiki/Do_Aankhen_Barah_Haath
p128
sg4
V/title/tt0050322/
p129
sg6
VDo Ankhen Barah Haath
p130
sa(dp131
g2
Vhttps://en.wikipedia.org/wiki/OMG_%E2%80%93_Oh_My_God!
p132
sg4
V/title/tt2283748/
p133
sg6
VOMG Oh My God 
p134
sa(dp135
g2
Vhttps://en.wikipedia.org/wiki/Roja
p136
sg4
V/title/tt0105271/
p137
sg6
VRoja
p138
sa(dp139
g2
Vhttps://en.wikipedia.org/wiki/Satya_(film)
p140
sg4
V/title/tt0195231/
p141
sg6
VSatya
p142
sa(dp143
g2
Vhttps://en.wikipedia.org/wiki/Lagaan
p144
sg4
V/title/tt0169102/
p145
sg6
VLagaan Once Upon a Time in India
p146
sa(dp147
g2
Vhttps://en.wikipedia.org/wiki/Iqbal_(film)
p148
sg4
V/title/tt0453729/
p149
sg6
VIqbal
p150
sa(dp151
g2
Vhttps://en.wikipedia.org/wiki/Vidya_Balan
p152
sg4
V/title/tt0456144/
p153
sg6
VLage Raho Munna Bhai
p154
sa(dp155
g2
Vhttps://en.wikipedia.org/wiki/Sahib_Bibi_Aur_Ghulam
p156
sg4
V/title/tt0056436/
p157
sg6
VSahib Bibi Aur Ghulam
p158
sa(dp159
g2
Vhttps://en.wikipedia.org/wiki/Om_(Kannada_film)
p160
sg4
V/title/tt0488414/
p161
sg6
VOmkara
p162
sa(dp163
g2
Vhttps://en.wikipedia.org/wiki/Deewaar_(2004_film)
p164
sg4
V/title/tt0072860/
p165
sg6
VDeewaar
p166
sa(dp167
g2
Vhttps://en.wikipedia.org/wiki/23rd_March_1931:_Shaheed
p168
sg4
V/title/tt0319736/
p169
sg6
VThe Legend of Bhagat Singh
p170
sa(dp171
g2
Vhttps://en.wikipedia.org/wiki/Gulaal
p172
sg4
V/title/tt1261047/
p173
sg6
VGulaal
p174
sa(dp175
g2
Vhttps://en.wikipedia.org/wiki/Dev.D
p176
sg4
V/title/tt1327035/
p177
sg6
VDev D
p178
sa(dp179
g2
Vhttps://en.wikipedia.org/wiki/Sarfarosh_(1930_film)
p180
sg4
V/title/tt0200087/
p181
sg6
VSarfarosh
p182
sa(dp183
g2
Vhttps://en.wikipedia.org/wiki/Shree_420
p184
sg4
V/title/tt0048613/
p185
sg6
VShree 420
p186
sa(dp187
g2
Vhttps://en.wikipedia.org/wiki/Alyssa_Mendonsa
p188
sg4
V/title/tt1562872/
p189
sg6
VZindagi Na Milegi Dobara
p190
sa(dp191
g2
Vhttps://en.wikipedia.org/wiki/Kal_Ho_Naa_Ho
p192
sg4
V/title/tt0347304/
p193
sg6
VKal Ho Naa Ho
p194
sa(dp195
g2
Vhttps://en.wikipedia.org/wiki/Fast_Company_(1918_film)
p196
sg4
V/title/tt0296574/
p197
sg6
VCompany
p198
sa(dp199
g2
Vhttps://en.wikipedia.org/wiki/Padosan
p200
sg4
V/title/tt0063404/
p201
sg6
VPadosan
p202
sa(dp203
g2
Vhttps://en.wikipedia.org/wiki/Naya_Daur_(1978_film)
p204
sg4
V/title/tt0050758/
p205
sg6
VNaya Daur
p206
sa(dp207
g2
g61
sg4
V/title/tt0043306/
p208
sg6
VAwaara
p209
sa(dp210
g2
Vhttps://en.wikipedia.org/wiki/Mother_India
p211
sg4
V/title/tt0050188/
p212
sg6
VMother India
p213
sa(dp214
g2
Vhttps://en.wikipedia.org/wiki/Salaam_Bombay!
p215
sg4
V/title/tt0096028/
p216
sg6
VSalaam Bombay 
p217
sa(dp218
g2
Vhttps://en.wikipedia.org/wiki/Hazaaron_Khwaishein_Aisi
p219
sg4
V/title/tt0411469/
p220
sg6
VHazaaron Khwaishein Aisi
p221
sa(dp222
g2
Vhttps://en.wikipedia.org/wiki/Bombay_(film)
p223
sg4
V/title/tt0112553/
p224
sg6
VBombay
p225
sa(dp226
g2
Vhttps://en.wikipedia.org/wiki/Pinjar_(film)
p227
sg4
V/title/tt0347779/
p228
sg6
VPinjar
p229
sa(dp230
g2
Vhttps://en.wikipedia.org/wiki/Kareena_Kapoor
p231
sg4
V/title/tt1093370/
p232
sg6
VJab We Met
p233
sa(dp234
g2
Vhttps://en.wikipedia.org/wiki/Dor_(film)
p235
sg4
V/title/tt0824316/
p236
sg6
VDor
p237
sa(dp238
g2
Vhttps://en.wikipedia.org/wiki/Johnny_Gaddaar
p239
sg4
V/title/tt1077248/
p240
sg6
VJohnny Gaddaar
p241
sa(dp242
g2
Vhttps://en.wikipedia.org/wiki/IIFA_Award_for_Best_Movie
p243
sg4
V/title/tt0220832/
p244
sg6
VVaastav The Reality
p245
sa(dp246
g2
Vhttps://en.wikipedia.org/wiki/Zakhm
p247
sg4
V/title/tt0211126/
p248
sg6
VZakhm
p249
sa(dp250
g2
Vhttps://en.wikipedia.org/wiki/My_Name_Is_Khan_(2013_film)
p251
sg4
V/title/tt1188996/
p252
sg6
VMy Name Is Khan
p253
sa(dp254
g2
S''
p255
sg4
V/title/tt0102701/
p256
sg6
VPrahaar The Final Attack
p257
sa(dp258
g2
Vhttps://en.wikipedia.org/wiki/Aparna_Sen
p259
sg4
V/title/tt0329393/
p260
sg6
VMr and Mrs Iyer
p261
sa(dp262
g2
Vhttps://en.wikipedia.org/wiki/Mera_Naam_Joker_(2000_film)
p263
sg4
V/title/tt0066070/
p264
sg6
VMera Naam Joker
p265
sa(dp266
g2
Vhttps://en.wikipedia.org/wiki/Lakshya_(film)
p267
sg4
V/title/tt0323013/
p268
sg6
VLakshya
p269
sa(dp270
g2
Vhttps://en.wikipedia.org/wiki/Bengal_Film_Journalists%27_Association_%E2%80%93_Best_Films
p271
sg4
V/title/tt0068257/
p272
sg6
VBawarchi
p273
sa(dp274
g2
Vhttps://en.wikipedia.org/wiki/Baazigar
p275
sg4
V/title/tt0106333/
p276
sg6
VBaazigar
p277
sa(dp278
g2
Vhttps://en.wikipedia.org/wiki/Rock_On_(2005_film)
p279
sg4
V/title/tt1230165/
p280
sg6
VRock On 
p281
sa(dp282
g2
Vhttps://en.wikipedia.org/wiki/1964_in_film
p283
sg4
V/title/tt1907761/
p284
sg6
VStanley s Tiffin Box
p285
sa(dp286
g2
Vhttps://en.wikipedia.org/wiki/Maachis
p287
sg4
V/title/tt0116950/
p288
sg6
VMaachis
p289
sa(dp290
g2
Vhttps://en.wikipedia.org/wiki/Gangaajal
p291
sg4
V/title/tt0373856/
p292
sg6
VGangaajal
p293
sa(dp294
g2
Vhttps://en.wikipedia.org/wiki/MP_da_Last_Don_(film)
p295
sg4
V/title/tt0077451/
p296
sg6
VDon
p297
sa(dp298
g2
Vhttps://en.wikipedia.org/wiki/Mr._India_(1987_film)
p299
sg4
V/title/tt0093578/
p300
sg6
VMr India
p301
sa(dp302
g2
Vhttps://en.wikipedia.org/wiki/Oye_Lucky!_Lucky_Oye!
p303
sg4
V/title/tt1292703/
p304
sg6
VOye Lucky Lucky Oye 
p305
sa(dp306
g4
V/title/tt0920464/
p307
sg6
VManorama Six Feet Under
p308
sa(dp309
g4
V/title/tt2855648/
p310
sg6
VMadras Cafe
p311
sa(dp312
g4
V/title/tt0164538/
p313
sg6
VDil Se 
p314
sa(dp315
g4
V/title/tt0106655/
p316
sg6
VDamini Lightning
p317
sa(dp318
g4
V/title/tt0076696/
p319
sg6
VThe Chess Players
p320
sa(dp321
g4
V/title/tt1241195/
p322
sg6
VAamir
p323
sa(dp324
g4
V/title/tt0499375/
p325
sg6
VGuru
p326
sa(dp327
g4
V/title/tt0137958/
p328
sg6
VMirza Ghalib
p329
sa(dp330
g4
V/title/tt0352314/
p331
sg6
VEk Hasina Thi
p332
sa(dp333
g4
V/title/tt0433425/
p334
sg6
VParzania
p335
sa(dp336
g4
V/title/tt0195002/
p337
sg6
VKaun 
p338
sa(dp339
g4
V/title/tt0070947/
p340
sg6
VZanjeer
p341
sa(dp342
g4
V/title/tt1014672/
p343
sg6
VBheja Fry
p344
sa(dp345
g4
V/title/tt1324059/
p346
sg6
VWake Up Sid
p347
sa(dp348
g4
V/title/tt0382383/
p349
sg6
VYuva
p350
sa(dp351
g4
V/title/tt1274295/
p352
sg6
VKaminey The Scoundrels
p353
sa(dp354
g4
V/title/tt1395054/
p355
sg6
VOnce Upon a Time in Mumbai
p356
sa(dp357
g4
V/title/tt0230141/
p358
sg6
VDil Deke Dekho
p359
sa(dp360
g4
V/title/tt0158587/
p361
sg6
VDhund
p362
sa(dp363
g4
V/title/tt0374887/
p364
sg6
VMunna Bhai M B B S 
p365
sa(dp366
g4
V/title/tt0986264/
p367
sg6
VLike Stars on Earth
p368
sa(dp369
g4
V/title/tt1280558/
p370
sg6
VA Wednesday
p371
sa(dp372
g4
V/title/tt0405508/
p373
sg6
VRang De Basanti
p374
sa(dp375
g4
V/title/tt0292490/
p376
sg6
VDil Chahta Hai
p377
sa.