(lp0
(dp1
S'title_raw'
p2
VAnand
p3
sS'title_year'
p4
VAnand_(1971_film)
p5
sS'link'
p6
Vhttp://www.imdb.com//title/tt0066763/
p7
sS'url'
p8
Vhttps://en.wikipedia.org/wiki/Anand_(1971_film)
p9
sS'title'
p10
VAnand
p11
sa(dp12
g2
VAndaz Apna Apna
p13
sg4
VAndaz Apna Apna_(1994_film)
p14
sg6
Vhttp://www.imdb.com//title/tt0109117/
p15
sg8
Vhttps://en.wikipedia.org/wiki/Ullathai_Allitha
p16
sg10
VAndaz Apna Apna
p17
sa(dp18
g2
VGol Maal
p19
sg4
VGol Maal_(1979_film)
p20
sg6
Vhttp://www.imdb.com//title/tt0079221/
p21
sg8
Vhttps://en.wikipedia.org/wiki/Gol_Maal
p22
sg10
VGol Maal
p23
sa(dp24
g2
VSholay
p25
sg4
VSholay_(1975_film)
p26
sg6
Vhttp://www.imdb.com//title/tt0073707/
p27
sg8
Vhttps://en.wikipedia.org/wiki/Sholay
p28
sg10
VSholay
p29
sa(dp30
g2
VBlack Friday
p31
sg4
VBlack Friday_(2004_film)
p32
sg6
Vhttp://www.imdb.com//title/tt0400234/
p33
sg8
Vhttps://en.wikipedia.org/wiki/Black_Friday_(1940_film)
p34
sg10
VBlack Friday
p35
sa(dp36
g2
VWho Pays the Piper
p37
sg4
VWho Pays the Piper_(1983_film)
p38
sg6
Vhttp://www.imdb.com//title/tt0085743/
p39
sg8
Vhttps://en.wikipedia.org/wiki/John_Elliot_(author)
p40
sg10
VWho Pays the Piper
p41
sa(dp42
g2
VHera Pheri
p43
sg4
VHera Pheri_(2000_film)
p44
sg6
Vhttp://www.imdb.com//title/tt0242519/
p45
sg8
Vhttps://en.wikipedia.org/wiki/Hera_Pheri_(1976_film)
p46
sg10
VHera Pheri
p47
sa(dp48
g2
VGuide
p49
sg4
VGuide_(1965_film)
p50
sg6
Vhttp://www.imdb.com//title/tt0059246/
p51
sg8
Vhttps://en.wikipedia.org/wiki/Guide_(film)
p52
sg10
VGuide
p53
sa(dp54
g2
VKoshish
p55
sg4
VKoshish_(1972_film)
p56
sg6
Vhttp://www.imdb.com//title/tt0215911/
p57
sg8
Vhttps://en.wikipedia.org/wiki/Koshish
p58
sg10
VKoshish
p59
sa(dp60
g2
VQueen
p61
sg4
VQueen_(2014_film)
p62
sg6
Vhttp://www.imdb.com//title/tt3322420/
p63
sg8
Vhttps://en.wikipedia.org/wiki/The_Virgin_Queen_(1923_film)
p64
sg10
VQueen
p65
sa(dp66
g2
VMasoom
p67
sg4
VMasoom_(1983_film)
p68
sg6
Vhttp://www.imdb.com//title/tt0085913/
p69
sg8
Vhttps://en.wikipedia.org/wiki/Masoom_(1960_film)
p70
sg10
VMasoom
p71
sa(dp72
g2
V3 Idiots
p73
sg4
V3 Idiots_(2009_film)
p74
sg6
Vhttp://www.imdb.com//title/tt1187043/
p75
sg8
Vhttps://en.wikipedia.org/wiki/3_Idiots
p76
sg10
V3 Idiots
p77
sa(dp78
g2
VChupke Chupke
p79
sg4
VChupke Chupke_(1975_film)
p80
sg6
Vhttp://www.imdb.com//title/tt0072783/
p81
sg8
Vhttps://en.wikipedia.org/wiki/Chupke_Chupke
p82
sg10
VChupke Chupke
p83
sa(dp84
g2
VPyaasa
p85
sg4
VPyaasa_(1957_film)
p86
sg6
Vhttp://www.imdb.com//title/tt0050870/
p87
sg8
Vhttps://en.wikipedia.org/wiki/Pyaasa_(2002_film)
p88
sg10
VPyaasa
p89
sa(dp90
g2
VChakde! India
p91
sg4
VChakde! India_(2007_film)
p92
sg6
Vhttp://www.imdb.com//title/tt0871510/
p93
sg8
S'_INVALID_PAGE_URL'
p94
sg10
VChakde India
p95
sa(dp96
g2
VGangs of Wasseypur
p97
sg4
VGangs of Wasseypur_(2012_film)
p98
sg6
Vhttp://www.imdb.com//title/tt1954470/
p99
sg8
Vhttps://en.wikipedia.org/wiki/List_of_Indian_film_series
p100
sg10
VGangs of Wasseypur
p101
sa(dp102
g2
VKhosla's Nest
p103
sg4
VKhosla's Nest_(2006_film)
p104
sg6
Vhttp://www.imdb.com//title/tt0466460/
p105
sg8
Vhttps://en.wikipedia.org/wiki/Khosla_Ka_Ghosla
p106
sg10
VKhosla s Nest
p107
sa(dp108
g2
VAngoor
p109
sg4
VAngoor_(1982_film)
p110
sg6
Vhttp://www.imdb.com//title/tt0215517/
p111
sg8
Vhttps://en.wikipedia.org/wiki/Angoor_(1982_film)
p112
sg10
VAngoor
p113
sa(dp114
g2
VUdaan
p115
sg4
VUdaan_(2010_film)
p116
sg6
Vhttp://www.imdb.com//title/tt1639426/
p117
sg8
Vhttps://en.wikipedia.org/wiki/Udaan_(1997_film)
p118
sg10
VUdaan
p119
sa(dp120
g2
VBhaag Milkha Bhaag
p121
sg4
VBhaag Milkha Bhaag_(2013_film)
p122
sg6
Vhttp://www.imdb.com//title/tt2356180/
p123
sg8
Vhttps://en.wikipedia.org/wiki/Bhaag_Milkha_Bhaag
p124
sg10
VBhaag Milkha Bhaag
p125
sa(dp126
g2
VMughal-E-Azam
p127
sg4
VMughal-E-Azam_(1957_film)
p128
sg6
Vhttp://www.imdb.com//title/tt0054098/
p129
sg8
Vhttps://en.wikipedia.org/wiki/Mughal-e-Azam
p130
sg10
VMughal E Azam
p131
sa(dp132
g2
VKabhi Haan Kabhi Naa
p133
sg4
VKabhi Haan Kabhi Naa_(1994_film)
p134
sg6
Vhttp://www.imdb.com//title/tt0110222/
p135
sg8
Vhttps://en.wikipedia.org/wiki/Kabhi_Haan_Kabhi_Naa
p136
sg10
VKabhi Haan Kabhi Naa
p137
sa(dp138
g2
VDilwale Dulhania Le Jayenge
p139
sg4
VDilwale Dulhania Le Jayenge_(1995_film)
p140
sg6
Vhttp://www.imdb.com//title/tt0112870/
p141
sg8
Vhttps://en.wikipedia.org/wiki/Dilwale_Dulhania_Le_Jayenge
p142
sg10
VDilwale Dulhania Le Jayenge
p143
sa(dp144
g2
VJo Jeeta Wohi Sikandar
p145
sg4
VJo Jeeta Wohi Sikandar_(1992_film)
p146
sg6
Vhttp://www.imdb.com//title/tt0104561/
p147
sg8
Vhttps://en.wikipedia.org/wiki/Madhosh_(1994_film)
p148
sg10
VJo Jeeta Wohi Sikandar
p149
sa(dp150
g2
VSwades
p151
sg4
VSwades_(2004_film)
p152
sg6
Vhttp://www.imdb.com//title/tt0367110/
p153
sg8
Vhttps://en.wikipedia.org/wiki/Swades
p154
sg10
VSwades
p155
sa(dp156
g2
VPaan Singh Tomar
p157
sg4
VPaan Singh Tomar_(2012_film)
p158
sg6
Vhttp://www.imdb.com//title/tt1620933/
p159
sg8
Vhttps://en.wikipedia.org/wiki/Paan_Singh_Tomar_(film)
p160
sg10
VPaan Singh Tomar
p161
sa(dp162
g2
VChhoti Si Baat
p163
sg4
VChhoti Si Baat_(1975_film)
p164
sg6
Vhttp://www.imdb.com//title/tt0072777/
p165
sg8
Vhttps://en.wikipedia.org/wiki/Chhoti_Si_Baat
p166
sg10
VChhoti Si Baat
p167
sa(dp168
g2
VDo Bigha Zamin
p169
sg4
VDo Bigha Zamin_(1953_film)
p170
sg6
Vhttp://www.imdb.com//title/tt0045693/
p171
sg8
Vhttps://en.wikipedia.org/wiki/Do_Bigha_Zamin
p172
sg10
VDo Bigha Zamin
p173
sa(dp174
g2
VMaqbool
p175
sg4
VMaqbool_(2003_film)
p176
sg6
Vhttp://www.imdb.com//title/tt0379370/
p177
sg8
Vhttps://en.wikipedia.org/wiki/Maqbool
p178
sg10
VMaqbool
p179
sa(dp180
g2
VKahaani
p181
sg4
VKahaani_(2012_film)
p182
sg6
Vhttp://www.imdb.com//title/tt1821480/
p183
sg8
g94
sg10
VKahaani
p184
sa(dp185
g2
VBarfi!
p186
sg4
VBarfi!_(2012_film)
p187
sg6
Vhttp://www.imdb.com//title/tt2082197/
p188
sg8
Vhttps://en.wikipedia.org/wiki/Barfi_(film)
p189
sg10
VBarfi 
p190
sa(dp191
g2
VDo Ankhen Barah Haath
p192
sg4
VDo Ankhen Barah Haath_(1957_film)
p193
sg6
Vhttp://www.imdb.com//title/tt0050322/
p194
sg8
Vhttps://en.wikipedia.org/wiki/Do_Aankhen_Barah_Haath
p195
sg10
VDo Ankhen Barah Haath
p196
sa(dp197
g2
VOMG: Oh My God!
p198
sg4
VOMG: Oh My God!_(2012_film)
p199
sg6
Vhttp://www.imdb.com//title/tt2283748/
p200
sg8
Vhttps://en.wikipedia.org/wiki/OMG_%E2%80%93_Oh_My_God!
p201
sg10
VOMG Oh My God 
p202
sa(dp203
g2
VRoja
p204
sg4
VRoja_(1992_film)
p205
sg6
Vhttp://www.imdb.com//title/tt0105271/
p206
sg8
Vhttps://en.wikipedia.org/wiki/Roja
p207
sg10
VRoja
p208
sa(dp209
g2
VSatya
p210
sg4
VSatya_(1998_film)
p211
sg6
Vhttp://www.imdb.com//title/tt0195231/
p212
sg8
Vhttps://en.wikipedia.org/wiki/Satya_(film)
p213
sg10
VSatya
p214
sa(dp215
g2
VLagaan: Once Upon a Time in India
p216
sg4
VLagaan: Once Upon a Time in India_(2001_film)
p217
sg6
Vhttp://www.imdb.com//title/tt0169102/
p218
sg8
Vhttps://en.wikipedia.org/wiki/Lagaan
p219
sg10
VLagaan Once Upon a Time in India
p220
sa(dp221
g2
VIqbal
p222
sg4
VIqbal_(2005_film)
p223
sg6
Vhttp://www.imdb.com//title/tt0453729/
p224
sg8
Vhttps://en.wikipedia.org/wiki/Iqbal_(film)
p225
sg10
VIqbal
p226
sa(dp227
g2
VLage Raho Munna Bhai
p228
sg4
VLage Raho Munna Bhai_(2006_film)
p229
sg6
Vhttp://www.imdb.com//title/tt0456144/
p230
sg8
Vhttps://en.wikipedia.org/wiki/Vidya_Balan
p231
sg10
VLage Raho Munna Bhai
p232
sa(dp233
g2
VSahib Bibi Aur Ghulam
p234
sg4
VSahib Bibi Aur Ghulam_(1962_film)
p235
sg6
Vhttp://www.imdb.com//title/tt0056436/
p236
sg8
Vhttps://en.wikipedia.org/wiki/Sahib_Bibi_Aur_Ghulam
p237
sg10
VSahib Bibi Aur Ghulam
p238
sa(dp239
g2
VOmkara
p240
sg4
VOmkara_(2006_film)
p241
sg6
Vhttp://www.imdb.com//title/tt0488414/
p242
sg8
Vhttps://en.wikipedia.org/wiki/Om_(Kannada_film)
p243
sg10
VOmkara
p244
sa(dp245
g2
VDeewaar
p246
sg4
VDeewaar_(1975_film)
p247
sg6
Vhttp://www.imdb.com//title/tt0072860/
p248
sg8
Vhttps://en.wikipedia.org/wiki/Deewaar_(2004_film)
p249
sg10
VDeewaar
p250
sa(dp251
g2
VThe Legend of Bhagat Singh
p252
sg4
VThe Legend of Bhagat Singh_(2002_film)
p253
sg6
Vhttp://www.imdb.com//title/tt0319736/
p254
sg8
Vhttps://en.wikipedia.org/wiki/23rd_March_1931:_Shaheed
p255
sg10
VThe Legend of Bhagat Singh
p256
sa(dp257
g2
VGulaal
p258
sg4
VGulaal_(2009_film)
p259
sg6
Vhttp://www.imdb.com//title/tt1261047/
p260
sg8
Vhttps://en.wikipedia.org/wiki/Gulaal
p261
sg10
VGulaal
p262
sa(dp263
g2
VDev D
p264
sg4
VDev D_(2009_film)
p265
sg6
Vhttp://www.imdb.com//title/tt1327035/
p266
sg8
Vhttps://en.wikipedia.org/wiki/Dev.D
p267
sg10
VDev D
p268
sa(dp269
g2
VSarfarosh
p270
sg4
VSarfarosh_(1999_film)
p271
sg6
Vhttp://www.imdb.com//title/tt0200087/
p272
sg8
Vhttps://en.wikipedia.org/wiki/Sarfarosh_(1930_film)
p273
sg10
VSarfarosh
p274
sa(dp275
g2
VShree 420
p276
sg4
VShree 420_(1955_film)
p277
sg6
Vhttp://www.imdb.com//title/tt0048613/
p278
sg8
Vhttps://en.wikipedia.org/wiki/Shree_420
p279
sg10
VShree 420
p280
sa(dp281
g2
VZindagi Na Milegi Dobara
p282
sg4
VZindagi Na Milegi Dobara_(2011_film)
p283
sg6
Vhttp://www.imdb.com//title/tt1562872/
p284
sg8
Vhttps://en.wikipedia.org/wiki/Alyssa_Mendonsa
p285
sg10
VZindagi Na Milegi Dobara
p286
sa(dp287
g2
VKal Ho Naa Ho
p288
sg4
VKal Ho Naa Ho_(2003_film)
p289
sg6
Vhttp://www.imdb.com//title/tt0347304/
p290
sg8
Vhttps://en.wikipedia.org/wiki/Kal_Ho_Naa_Ho
p291
sg10
VKal Ho Naa Ho
p292
sa(dp293
g2
VCompany
p294
sg4
VCompany_(2002_film)
p295
sg6
Vhttp://www.imdb.com//title/tt0296574/
p296
sg8
Vhttps://en.wikipedia.org/wiki/Fast_Company_(1918_film)
p297
sg10
VCompany
p298
sa(dp299
g2
VPadosan
p300
sg4
VPadosan_(1968_film)
p301
sg6
Vhttp://www.imdb.com//title/tt0063404/
p302
sg8
Vhttps://en.wikipedia.org/wiki/Padosan
p303
sg10
VPadosan
p304
sa(dp305
g2
VNaya Daur
p306
sg4
VNaya Daur_(1957_film)
p307
sg6
Vhttp://www.imdb.com//title/tt0050758/
p308
sg8
Vhttps://en.wikipedia.org/wiki/Naya_Daur_(1978_film)
p309
sg10
VNaya Daur
p310
sa(dp311
g2
VAwaara
p312
sg4
VAwaara_(1951_film)
p313
sg6
Vhttp://www.imdb.com//title/tt0043306/
p314
sg8
g94
sg10
VAwaara
p315
sa(dp316
g2
VMother India
p317
sg4
VMother India_(1957_film)
p318
sg6
Vhttp://www.imdb.com//title/tt0050188/
p319
sg8
Vhttps://en.wikipedia.org/wiki/Mother_India
p320
sg10
VMother India
p321
sa(dp322
g2
VSalaam Bombay!
p323
sg4
VSalaam Bombay!_(1988_film)
p324
sg6
Vhttp://www.imdb.com//title/tt0096028/
p325
sg8
Vhttps://en.wikipedia.org/wiki/Salaam_Bombay!
p326
sg10
VSalaam Bombay 
p327
sa(dp328
g2
VHazaaron Khwaishein Aisi
p329
sg4
VHazaaron Khwaishein Aisi_(2003_film)
p330
sg6
Vhttp://www.imdb.com//title/tt0411469/
p331
sg8
Vhttps://en.wikipedia.org/wiki/Hazaaron_Khwaishein_Aisi
p332
sg10
VHazaaron Khwaishein Aisi
p333
sa(dp334
g2
VBombay
p335
sg4
VBombay_(1995_film)
p336
sg6
Vhttp://www.imdb.com//title/tt0112553/
p337
sg8
Vhttps://en.wikipedia.org/wiki/Bombay_(film)
p338
sg10
VBombay
p339
sa(dp340
g2
VPinjar
p341
sg4
VPinjar_(2003_film)
p342
sg6
Vhttp://www.imdb.com//title/tt0347779/
p343
sg8
Vhttps://en.wikipedia.org/wiki/Pinjar_(film)
p344
sg10
VPinjar
p345
sa(dp346
g2
VJab We Met
p347
sg4
VJab We Met_(2007_film)
p348
sg6
Vhttp://www.imdb.com//title/tt1093370/
p349
sg8
Vhttps://en.wikipedia.org/wiki/Kareena_Kapoor
p350
sg10
VJab We Met
p351
sa(dp352
g2
VDor
p353
sg4
VDor_(2006_film)
p354
sg6
Vhttp://www.imdb.com//title/tt0824316/
p355
sg8
Vhttps://en.wikipedia.org/wiki/Dor_(film)
p356
sg10
VDor
p357
sa(dp358
g2
VJohnny Gaddaar
p359
sg4
VJohnny Gaddaar_(2007_film)
p360
sg6
Vhttp://www.imdb.com//title/tt1077248/
p361
sg8
Vhttps://en.wikipedia.org/wiki/Johnny_Gaddaar
p362
sg10
VJohnny Gaddaar
p363
sa(dp364
g2
VVaastav: The Reality
p365
sg4
VVaastav: The Reality_(1999_film)
p366
sg6
Vhttp://www.imdb.com//title/tt0220832/
p367
sg8
Vhttps://en.wikipedia.org/wiki/IIFA_Award_for_Best_Movie
p368
sg10
VVaastav The Reality
p369
sa(dp370
g2
VZakhm
p371
sg4
VZakhm_(1998_film)
p372
sg6
Vhttp://www.imdb.com//title/tt0211126/
p373
sg8
Vhttps://en.wikipedia.org/wiki/Zakhm
p374
sg10
VZakhm
p375
sa(dp376
g2
VMy Name Is Khan
p377
sg4
VMy Name Is Khan_(2010_film)
p378
sg6
Vhttp://www.imdb.com//title/tt1188996/
p379
sg8
Vhttps://en.wikipedia.org/wiki/My_Name_Is_Khan_(2013_film)
p380
sg10
VMy Name Is Khan
p381
sa(dp382
g2
VPrahaar: The Final Attack
p383
sg4
VPrahaar: The Final Attack_(1991_film)
p384
sg6
Vhttp://www.imdb.com//title/tt0102701/
p385
sg8
Vhttps://en.wikipedia.org/wiki/Prahaar:_The_Final_Attack
p386
sg10
VPrahaar The Final Attack
p387
sa(dp388
g2
VMr. and Mrs. Iyer
p389
sg4
VMr. and Mrs. Iyer_(2002_film)
p390
sg6
Vhttp://www.imdb.com//title/tt0329393/
p391
sg8
Vhttps://en.wikipedia.org/wiki/Aparna_Sen
p392
sg10
VMr and Mrs Iyer
p393
sa(dp394
g2
VMera Naam Joker
p395
sg4
VMera Naam Joker_(1970_film)
p396
sg6
Vhttp://www.imdb.com//title/tt0066070/
p397
sg8
Vhttps://en.wikipedia.org/wiki/Mera_Naam_Joker_(2000_film)
p398
sg10
VMera Naam Joker
p399
sa(dp400
g2
VLakshya
p401
sg4
VLakshya_(2004_film)
p402
sg6
Vhttp://www.imdb.com//title/tt0323013/
p403
sg8
Vhttps://en.wikipedia.org/wiki/Lakshya_(film)
p404
sg10
VLakshya
p405
sa(dp406
g2
VBawarchi
p407
sg4
VBawarchi_(1972_film)
p408
sg6
Vhttp://www.imdb.com//title/tt0068257/
p409
sg8
Vhttps://en.wikipedia.org/wiki/Bengal_Film_Journalists%27_Association_%E2%80%93_Best_Films
p410
sg10
VBawarchi
p411
sa(dp412
g2
VBaazigar
p413
sg4
VBaazigar_(1993_film)
p414
sg6
Vhttp://www.imdb.com//title/tt0106333/
p415
sg8
Vhttps://en.wikipedia.org/wiki/Baazigar
p416
sg10
VBaazigar
p417
sa(dp418
g2
VRock On!!
p419
sg4
VRock On!!_(2008_film)
p420
sg6
Vhttp://www.imdb.com//title/tt1230165/
p421
sg8
Vhttps://en.wikipedia.org/wiki/Rock_On!!
p422
sg10
VRock On 
p423
sa(dp424
g2
VStanley's Tiffin Box
p425
sg4
VStanley's Tiffin Box_(2011_film)
p426
sg6
Vhttp://www.imdb.com//title/tt1907761/
p427
sg8
Vhttps://en.wikipedia.org/wiki/1964_in_film
p428
sg10
VStanley s Tiffin Box
p429
sa(dp430
g2
VMaachis
p431
sg4
VMaachis_(1996_film)
p432
sg6
Vhttp://www.imdb.com//title/tt0116950/
p433
sg8
Vhttps://en.wikipedia.org/wiki/Maachis
p434
sg10
VMaachis
p435
sa(dp436
g2
VGangaajal
p437
sg4
VGangaajal_(2003_film)
p438
sg6
Vhttp://www.imdb.com//title/tt0373856/
p439
sg8
Vhttps://en.wikipedia.org/wiki/Gangaajal
p440
sg10
VGangaajal
p441
sa(dp442
g2
VDon
p443
sg4
VDon_(1978_film)
p444
sg6
Vhttp://www.imdb.com//title/tt0077451/
p445
sg8
Vhttps://en.wikipedia.org/wiki/MP_da_Last_Don_(film)
p446
sg10
VDon
p447
sa(dp448
g2
VManorama Six Feet Under
p449
sg4
VManorama Six Feet Under_(2007_film)
p450
sg6
Vhttp://www.imdb.com//title/tt0920464/
p451
sg8
Vhttps://en.wikipedia.org/wiki/Manorama_(film)
p452
sg10
VManorama Six Feet Under
p453
sa(dp454
g2
VMr India
p455
sg4
VMr India_(1987_film)
p456
sg6
Vhttp://www.imdb.com//title/tt0093578/
p457
sg8
Vhttps://en.wikipedia.org/wiki/Mr._India_(1987_film)
p458
sg10
VMr India
p459
sa(dp460
g2
VOye Lucky! Lucky Oye!
p461
sg4
VOye Lucky! Lucky Oye!_(2008_film)
p462
sg6
Vhttp://www.imdb.com//title/tt1292703/
p463
sg8
Vhttps://en.wikipedia.org/wiki/Oye_Lucky!_Lucky_Oye!
p464
sg10
VOye Lucky Lucky Oye 
p465
sa(dp466
g2
VMadras Cafe
p467
sg4
VMadras Cafe_(2013_film)
p468
sg6
Vhttp://www.imdb.com//title/tt2855648/
p469
sg8
Vhttps://en.wikipedia.org/wiki/Nargis_Fakhri
p470
sg10
VMadras Cafe
p471
sa(dp472
g2
VDil Se..
p473
sg4
VDil Se.._(1998_film)
p474
sg6
Vhttp://www.imdb.com//title/tt0164538/
p475
sg8
Vhttps://en.wikipedia.org/wiki/Dil_Se..
p476
sg10
VDil Se 
p477
sa(dp478
g2
VDamini - Lightning
p479
sg4
VDamini - Lightning_(1993_film)
p480
sg6
Vhttp://www.imdb.com//title/tt0106655/
p481
sg8
Vhttps://en.wikipedia.org/wiki/Damini_%E2%80%93_Lightning
p482
sg10
VDamini Lightning
p483
sa(dp484
g2
VThe Chess Players
p485
sg4
VThe Chess Players_(1977_film)
p486
sg6
Vhttp://www.imdb.com//title/tt0076696/
p487
sg8
Vhttps://en.wikipedia.org/wiki/The_Chess_Players
p488
sg10
VThe Chess Players
p489
sa(dp490
g2
VAamir
p491
sg4
VAamir_(2008_film)
p492
sg6
Vhttp://www.imdb.com//title/tt1241195/
p493
sg8
Vhttps://en.wikipedia.org/wiki/Aamir_(film)
p494
sg10
VAamir
p495
sa(dp496
g2
VGuru
p497
sg4
VGuru_(2007_film)
p498
sg6
Vhttp://www.imdb.com//title/tt0499375/
p499
sg8
Vhttps://en.wikipedia.org/wiki/The_Guru_(1969_film)
p500
sg10
VGuru
p501
sa(dp502
g2
VMirza Ghalib
p503
sg4
VMirza Ghalib_(1954_film)
p504
sg6
Vhttp://www.imdb.com//title/tt0137958/
p505
sg8
Vhttps://en.wikipedia.org/wiki/Mirza_Ghalib_(film)
p506
sg10
VMirza Ghalib
p507
sa(dp508
g2
VEk Hasina Thi
p509
sg4
VEk Hasina Thi_(2004_film)
p510
sg6
Vhttp://www.imdb.com//title/tt0352314/
p511
sg8
Vhttps://en.wikipedia.org/wiki/Ek_Hasina_Thi_(film)
p512
sg10
VEk Hasina Thi
p513
sa(dp514
g2
VParzania
p515
sg4
VParzania_(2005_film)
p516
sg6
Vhttp://www.imdb.com//title/tt0433425/
p517
sg8
Vhttps://en.wikipedia.org/wiki/Parzania
p518
sg10
VParzania
p519
sa(dp520
g2
VKaun?
p521
sg4
VKaun?_(1999_film)
p522
sg6
Vhttp://www.imdb.com//title/tt0195002/
p523
sg8
Vhttps://en.wikipedia.org/wiki/Kaun_(film)
p524
sg10
VKaun 
p525
sa(dp526
g2
VZanjeer
p527
sg4
VZanjeer_(1973_film)
p528
sg6
Vhttp://www.imdb.com//title/tt0070947/
p529
sg8
g94
sg10
VZanjeer
p530
sa(dp531
g2
VBheja Fry
p532
sg4
VBheja Fry_(2007_film)
p533
sg6
Vhttp://www.imdb.com//title/tt1014672/
p534
sg8
Vhttps://en.wikipedia.org/wiki/Bheja_Fry_(film)
p535
sg10
VBheja Fry
p536
sa(dp537
g2
VWake Up Sid
p538
sg4
VWake Up Sid_(2009_film)
p539
sg6
Vhttp://www.imdb.com//title/tt1324059/
p540
sg8
Vhttps://en.wikipedia.org/wiki/Wake_Up_Sid
p541
sg10
VWake Up Sid
p542
sa(dp543
g2
VYuva
p544
sg4
VYuva_(2004_film)
p545
sg6
Vhttp://www.imdb.com//title/tt0382383/
p546
sg8
Vhttps://en.wikipedia.org/wiki/Yuva
p547
sg10
VYuva
p548
sa(dp549
g2
VKaminey: The Scoundrels
p550
sg4
VKaminey: The Scoundrels_(2009_film)
p551
sg6
Vhttp://www.imdb.com//title/tt1274295/
p552
sg8
Vhttps://en.wikipedia.org/wiki/Kaminey
p553
sg10
VKaminey The Scoundrels
p554
sa(dp555
g2
VOnce Upon a Time in Mumbai
p556
sg4
VOnce Upon a Time in Mumbai_(2010_film)
p557
sg6
Vhttp://www.imdb.com//title/tt1395054/
p558
sg8
Vhttps://en.wikipedia.org/wiki/Once_Upon_ay_Time_in_Mumbai_Dobaara!
p559
sg10
VOnce Upon a Time in Mumbai
p560
sa(dp561
g2
VDil Deke Dekho
p562
sg4
VDil Deke Dekho_(1959_film)
p563
sg6
Vhttp://www.imdb.com//title/tt0230141/
p564
sg8
Vhttps://en.wikipedia.org/wiki/Rajendra_Nath
p565
sg10
VDil Deke Dekho
p566
sa(dp567
g2
VDhund
p568
sg4
VDhund_(1973_film)
p569
sg6
Vhttp://www.imdb.com//title/tt0158587/
p570
sg8
Vhttps://en.wikipedia.org/wiki/Dhund_(1973_film)
p571
sg10
VDhund
p572
sa(dp573
g2
VMunna Bhai M.B.B.S.
p574
sg4
VMunna Bhai M.B.B.S._(2003_film)
p575
sg6
Vhttp://www.imdb.com//title/tt0374887/
p576
sg8
Vhttps://en.wikipedia.org/wiki/Munna_Bhai_M.B.B.S.
p577
sg10
VMunna Bhai M B B S 
p578
sa(dp579
g2
VLike Stars on Earth
p580
sg4
VLike Stars on Earth_(2007_film)
p581
sg6
Vhttp://www.imdb.com//title/tt0986264/
p582
sg8
Vhttps://en.wikipedia.org/wiki/Tanay_Chheda
p583
sg10
VLike Stars on Earth
p584
sa(dp585
g2
VA Wednesday
p586
sg4
VA Wednesday_(2008_film)
p587
sg6
Vhttp://www.imdb.com//title/tt1280558/
p588
sg8
Vhttps://en.wikipedia.org/wiki/Ash_Wednesday_(1958_film)
p589
sg10
VA Wednesday
p590
sa(dp591
g2
VRang De Basanti
p592
sg4
VRang De Basanti_(2006_film)
p593
sg6
Vhttp://www.imdb.com//title/tt0405508/
p594
sg8
Vhttps://en.wikipedia.org/wiki/Rang_De_Basanti
p595
sg10
VRang De Basanti
p596
sa(dp597
g2
VDil Chahta Hai
p598
sg4
VDil Chahta Hai_(2001_film)
p599
sg6
Vhttp://www.imdb.com//title/tt0292490/
p600
sg8
Vhttps://en.wikipedia.org/wiki/Khayal_Gatha
p601
sg10
VDil Chahta Hai
p602
sa.